; Function Attrs: nofree nosync nounwind memory(readwrite, inaccessiblemem: none) uwtable
define internal fastcc i32 @Wlc_NtkNodeDeref_rec(ptr noundef readonly captures(none) %0, ptr noundef %1, ptr noundef readonly captures(none) %2) unnamed_addr #11 {
  %.val23 = load i16, ptr %1, align 8
  %4 = and i16 %.val23, 61
  %narrow.i.not = icmp eq i16 %4, 1
  br i1 %narrow.i.not, label %.critedge, label %5

5:                                                ; preds = %3
  %6 = getelementptr i8, ptr %0, i64 640
  %.val21 = load ptr, ptr %6, align 8, !tbaa !38
  %7 = ptrtoint ptr %1 to i64
  %8 = ptrtoint ptr %.val21 to i64
  %9 = sub i64 %7, %8
  %10 = sdiv exact i64 %9, 24
  %11 = trunc i64 %10 to i32
  %12 = getelementptr i8, ptr %2, i64 8
  %.val22 = load ptr, ptr %12, align 8, !tbaa !24
  %13 = and i32 %11, 31
  %14 = shl nuw i32 1, %13
  %15 = ashr i32 %11, 5
  %16 = sext i32 %15 to i64
  %17 = getelementptr inbounds i32, ptr %.val22, i64 %16
  %18 = load i32, ptr %17, align 4, !tbaa !39
  %19 = or i32 %14, %18
  store i32 %19, ptr %17, align 4, !tbaa !39
  %20 = getelementptr i8, ptr %1, i64 4
  %.val2527 = load i32, ptr %20, align 4, !tbaa !76
  %21 = icmp sgt i32 %.val2527, 0
  br i1 %21, label %.lr.ph, label %.critedge

.lr.ph:                                           ; preds = %5
  %22 = getelementptr inbounds nuw i8, ptr %1, i64 16
  %23 = getelementptr i8, ptr %0, i64 808
  br label %24

24:                                               ; preds = %.lr.ph, %42
  %indvars.iv = phi i64 [ 0, %.lr.ph ], [ %indvars.iv.next, %42 ]
  %.val2530 = phi i32 [ %.val2527, %.lr.ph ], [ %.val25, %42 ]
  %.029 = phi i32 [ 1, %.lr.ph ], [ %.1, %42 ]
  %25 = icmp ugt i32 %.val2530, 2
  br i1 %25, label %Wlc_ObjHasArray.exit.thread.i.i, label %26

26:                                               ; preds = %24
  %27 = load i16, ptr %1, align 8
  %28 = and i16 %27, 63
  switch i16 %28, label %Wlc_ObjFaninId.exit [
    i16 6, label %Wlc_ObjHasArray.exit.thread.i.i
    i16 22, label %Wlc_ObjHasArray.exit.thread.i.i
  ]

Wlc_ObjHasArray.exit.thread.i.i:                  ; preds = %26, %26, %24
  %29 = load ptr, ptr %22, align 8, !tbaa !50
  br label %Wlc_ObjFaninId.exit

Wlc_ObjFaninId.exit:                              ; preds = %26, %Wlc_ObjHasArray.exit.thread.i.i
  %30 = phi ptr [ %29, %Wlc_ObjHasArray.exit.thread.i.i ], [ %22, %26 ]
  %31 = getelementptr inbounds nuw i32, ptr %30, i64 %indvars.iv
  %32 = load i32, ptr %31, align 4, !tbaa !39
  %.val26 = load ptr, ptr %23, align 8, !tbaa !37
  %33 = sext i32 %32 to i64
  %34 = getelementptr inbounds i32, ptr %.val26, i64 %33
  %35 = load i32, ptr %34, align 4, !tbaa !39
  %36 = add nsw i32 %35, -1
  store i32 %36, ptr %34, align 4, !tbaa !39
  %37 = icmp eq i32 %36, 0
  br i1 %37, label %38, label %42

38:                                               ; preds = %Wlc_ObjFaninId.exit
  %.val = load ptr, ptr %6, align 8, !tbaa !38
  %39 = getelementptr inbounds %struct.Wlc_Obj_t_, ptr %.val, i64 %33
  %40 = tail call fastcc i32 @Wlc_NtkNodeDeref_rec(ptr noundef nonnull %0, ptr noundef %39, ptr noundef %2)
  %41 = add nsw i32 %40, %.029
  br label %42

42:                                               ; preds = %Wlc_ObjFaninId.exit, %38
  %.1 = phi i32 [ %41, %38 ], [ %.029, %Wlc_ObjFaninId.exit ]
  %indvars.iv.next = add nuw nsw i64 %indvars.iv, 1
  %.val25 = load i32, ptr %20, align 4, !tbaa !76
  %43 = sext i32 %.val25 to i64
  %44 = icmp slt i64 %indvars.iv.next, %43
  br i1 %44, label %24, label %.critedge, !llvm.loop !78

.critedge:                                        ; preds = %42, %5, %3
  %.019 = phi i32 [ 0, %3 ], [ 1, %5 ], [ %.1, %42 ]
  ret i32 %.019
}